(dp0
I2
F0.238307
sI3
F0.477785
sI6
F0.95935
sI8
F0.66087
sI10
F0.452703
sI11
F0.5392
sI12
F0.9
sI14
F0.9
sI16
F0.9
sI18
F0.9
sI20
F0.9
sI21
F0.299769
sI22
F0.9
sI23
F0.57298
sI26
F0.666667
sI28
F0.898221
sI30
F0.10232
sI31
F0.3
sI32
F0.895924
sI36
F0.857143
sI37
F0.348958
sI39
F0.574405
sI40
F0.466346
sI41
F0.64486
sI43
F0.264706
sI44
F0.394045
sI46
F0.481191
sI48
F0.655629
sI50
F0.346555
sI53
F0.444444
sI54
F0.742317
sI59
F0.358974
sI60
F0.6616
sI61
F0.666667
sI62
F0.594059
sI150
F0.512411
sI151
F0.424545
sI153
F0.499834
sI154
F0.899176
sI155
F0.498884
sI156
F0.699904
sI157
F0.699904
sI158
F0.699904
sI159
F0.699904
sI160
F0.699904
sI161
F0.385658
sI162
F0.385668
sI180
F0.531836
sI181
F0.688005
sI182
F0.761897
sI183
F0.835049
sI184
F0.837717
sI187
F0.601124
sI189
F0.155151
sI197
F0.94397
sI198
F0.0
sI209
F0.444904
sI223
F0.924211
sI227
F0.94397
sI230
F0.966507
sI273
F0.362052
sI275
F0.408451
sI276
F0.324324
sI277
F0.391892
sI278
F0.27027
sI279
F0.49028
sI285
F0.690722
sI287
F0.563491
sI292
F0.444928
sI293
F0.487611
sI294
F0.761772
sI298
F0.059662
sI300
F0.961524
sI307
F0.909091
sI310
F0.0232496
sI312
F0.179061
sI313
F0.896422
sI329
F0.59375
sI333
F0.5
sI334
F0.342762
sI335
F0.480144
sI336
F0.205993
sI337
F0.272206
sI338
F0.683871
sI339
F0.666667
sI343
F0.396825
sI346
F0.5
sI351
F0.333333
sI354
F0.498832
sI357
F0.5
sI375
F0.837968
sI377
F0.833333
sI383
F0.768116
sI384
F0.3125
sI385
F0.62028
sI386
F0.828039
sI387
F0.681159
sI388
F0.553922
sI389
F0.794559
sI390
F0.927181
sI391
F0.59641
sI392
F0.80658
sI393
F0.705691
sI394
F0.837691
sI395
F0.776101
sI396
F0.70568
sI397
F0.702875
sI398
F0.78141
sI399
F0.854775
sI400
F0.723235
sI401
F0.842857
sI444
F0.462121
sI446
F0.5
sI448
F0.35
sI450
F0.0719697
sI457
F0.555556
sI458
F0.623068
sI459
F0.445783
sI461
F0.27
sI462
F0.304348
sI463
F0.138889
sI464
F0.5
sI465
F0.247423
sI467
F0.480769
sI468
F0.833333
sI469
F0.805521
sI472
F0.402299
sI475
F0.75
sI476
F0.5
sI477
F0.38806
sI478
F0.84
sI479
F0.206522
sI480
F0.360656
sI554
F0.887471
sI679
F0.605469
sI682
F0.413793
sI683
F0.5
sI685
F0.8
sI694
F0.867742
sI713
F0.461538
sI714
F0.392
sI715
F0.443
sI716
F0.38
sI717
F0.437008
sI718
F0.436
sI719
F0.313869
sI720
F0.498204
sI721
F0.485
sI722
F0.336067
sI723
F0.453
sI724
F0.444444
sI725
F0.403687
sI726
F0.4
sI727
F0.499117
sI728
F0.239635
sI729
F0.386364
sI730
F0.476
sI731
F0.489583
sI732
F0.468
sI733
F0.267943
sI734
F0.423855
sI735
F0.302368
sI736
F0.477477
sI737
F0.495977
sI740
F0.44
sI741
F0.49707
sI742
F0.434
sI743
F0.457
sI744
F0.436
sI745
F0.339623
sI746
F0.428
sI747
F0.227545
sI748
F0.288344
sI749
F0.474
sI750
F0.492
sI751
F0.44
sI752
F0.496094
sI753
F0.463918
sI754
F0.46
sI755
F0.5
sI756
F0.339623
sI758
F0.268657
sI759
F0.5
sI761
F0.302368
sI762
F0.45
sI763
F0.5
sI764
F0.122222
sI765
F0.134737
sI766
F0.476
sI767
F0.128421
sI768
F0.45
sI769
F0.452
sI770
F0.496
sI771
F0.444444
sI772
F0.444904
sI773
F0.496
sI774
F0.478852
sI775
F0.43
sI776
F0.5
sI777
F0.425532
sI778
F0.492063
sI779
F0.466
sI780
F0.411765
sI782
F0.475
sI783
F0.4
sI784
F0.5
sI785
F0.488889
sI787
F0.48
sI788
F0.413978
sI789
F0.47
sI790
F0.436364
sI791
F0.395349
sI792
F0.404
sI793
F0.46
sI794
F0.444
sI795
F0.493958
sI796
F0.253589
sI797
F0.44
sI799
F0.497
sI800
F0.418919
sI801
F0.47027
sI803
F0.469351
sI804
F0.485714
sI805
F0.472
sI806
F0.445
sI807
F0.491211
sI808
F0.45
sI811
F0.382576
sI812
F0.47
sI813
F0.437
sI814
F0.452991
sI815
F0.461538
sI816
F0.497803
sI817
F0.479167
sI818
F0.467742
sI819
F0.497216
sI820
F0.395745
sI821
F0.295997
sI822
F0.40625
sI823
F0.43188
sI824
F0.452
sI825
F0.440711
sI826
F0.414931
sI827
F0.496979
sI828
F0.47
sI829
F0.45
sI830
F0.364
sI832
F0.444
sI833
F0.310425
sI834
F0.44
sI835
F0.4375
sI836
F0.441176
sI837
F0.453
sI838
F0.432
sI841
F0.486316
sI843
F0.295997
sI845
F0.491
sI846
F0.309055
sI847
F0.467448
sI848
F0.263158
sI849
F0.497
sI850
F0.49
sI851
F0.425
sI853
F0.413043
sI855
F0.448
sI857
F0.35
sI859
F0.418919
sI860
F0.486842
sI862
F0.482759
sI863
F0.468
sI864
F0.45
sI865
F0.07
sI866
F0.418
sI867
F0.192308
sI868
F0.46
sI869
F0.428
sI870
F0.466
sI871
F0.5
sI872
F0.413043
sI873
F0.432
sI874
F0.42
sI875
F0.19
sI876
F0.44
sI877
F0.452
sI878
F0.47
sI879
F0.392
sI880
F0.5
sI881
F0.403429
sI882
F0.483333
sI884
F0.498
sI885
F0.366412
sI886
F0.498
sI888
F0.488
sI891
F0.387097
sI892
F0.48
sI893
F0.452055
sI894
F0.5
sI895
F0.396396
sI896
F0.44
sI900
F0.4125
sI901
F0.498945
sI902
F0.469388
sI903
F0.437
sI904
F0.49
sI905
F0.307692
sI906
F0.4825
sI907
F0.485
sI908
F0.48
sI909
F0.4925
sI910
F0.436
sI911
F0.44
sI912
F0.416
sI913
F0.42
sI914
F0.24088
sI915
F0.422222
sI916
F0.44
sI917
F0.454
sI918
F0.46
sI919
F0.475
sI920
F0.41
sI921
F0.348485
sI922
F0.42
sI923
F0.449948
sI924
F0.5
sI925
F0.458204
sI926
F0.49
sI927
F0.404762
sI928
F0.456522
sI929
F0.5
sI931
F0.47432
sI932
F0.44
sI933
F0.456
sI934
F0.221453
sI935
F0.44
sI936
F0.456
sI937
F0.436
sI938
F0.452381
sI941
F0.47619
sI942
F0.48
sI943
F0.482
sI945
F0.473684
sI946
F0.488636
sI947
F0.0429338
sI948
F0.444904
sI949
F0.143113
sI950
F0.0339893
sI951
F0.0232558
sI952
F0.64486
sI953
F0.481191
sI954
F0.103578
sI955
F0.344371
sI956
F0.320755
sI958
F0.142857
sI959
F0.333333
sI962
F0.1
sI964
F0.333333
sI965
F0.405941
sI969
F0.333333
sI970
F0.376932
sI971
F0.1
sI973
F0.398876
sI974
F0.386364
sI976
F0.162032
sI977
F0.04065
sI978
F0.1
sI979
F0.3384
sI980
F0.101779
sI983
F0.42702
sI987
F0.16
sI988
F0.38806
sI991
F0.299769
sI994
F0.257683
sI995
F0.1
sI996
F0.35514
sI997
F0.4608
sI1004
F0.166667
sI1005
F0.35514
sI1006
F0.452703
sI1009
F0.396825
sI1011
F0.425595
sI1012
F0.35567
sI1013
F0.0652174
sI1014
F0.194479
sI1015
F0.166667
sI1016
F0.0909091
sI1019
F0.104076
sI1020
F0.1
sI1021
F0.10232
sI1022
F0.1
sI1025
F0.225
sI1026
F0.316129
sI1036
F0.0615491
sI1038
F0.491638
sI1040
F0.0615491
sI1041
F0.889562
sI1043
F0.248137
sI1044
F0.610278
sI1045
F0.0551724
sI1046
F0.328594
sI1048
F0.447154
sI1049
F0.122085
sI1050
F0.102367
sI1054
F0.322981
sI1055
F0.224719
sI1056
F0.0071836
sI1059
F0.0743802
sI1060
F0.126984
sI1061
F0.186916
sI1062
F0.222222
sI1063
F0.204981
sI1064
F0.148515
sI1065
F0.0938865
sI1066
F0.413793
sI1067
F0.154576
sI1068
F0.0694319
sI1069
F0.00411523
sI1071
F0.0769231
sI1073
F0.489051
sI1075
F0.0846154
sI1077
F0.447619
sI1078
F0.447619
sI1079
F0.715789
sI1080
F0.548673
sI1081
F0.516854
sI1082
F0.423913
sI1083
F0.67757
sI1084
F0.418182
sI1085
F0.402516
sI1086
F0.134276
sI1087
F0.134276
sI1088
F0.5953
sI1100
F0.483264
sI1104
F0.347222
sI1106
F0.842105
sI1107
F0.35
sI1110
F0.0449317
sI1113
F0.431622
sI1115
F0.655629
sI1116
F0.154138
sI1117
F0.432099
sI1120
F0.35163
sI1121
F0.285714
sI1122
F0.16707
sI1123
F0.150617
sI1124
F0.383085
sI1125
F0.472603
sI1126
F0.305825
sI1127
F0.182898
sI1128
F0.222654
sI1129
F0.322917
sI1130
F0.0815534
sI1131
F0.357513
sI1132
F0.37931
sI1133
F0.175793
sI1135
F0.194366
sI1136
F0.496
sI1137
F0.47619
sI1138
F0.0802589
sI1139
F0.0498382
sI1140
F0.388889
sI1141
F0.469231
sI1142
F0.0394822
sI1143
F0.212121
sI1144
F0.209726
sI1145
F0.453968
sI1146
F0.0446602
sI1147
F0.228487
sI1148
F0.264957
sI1149
F0.432314
sI1150
F0.268085
sI1151
F0.442029
sI1152
F0.258427
sI1153
F0.409091
sI1154
F0.326203
sI1155
F0.353846
sI1156
F0.28
sI1157
F0.190031
sI1158
F0.430464
sI1159
F0.235521
sI1160
F0.302439
sI1161
F0.185113
sI1162
F0.385093
sI1163
F0.326425
sI1164
F0.32973
sI1165
F0.365314
sI1166
F0.128155
sI1169
F0.445442
sI1216
F1.49741e-05
sI1217
F0.0447076
sI1218
F3.00296e-06
sI1233
F0.851852
sI1235
F0.327955
sI1236
F0.111609
sI1237
F0.444057
sI1238
F0.333571
sI1241
F0.333333
sI1242
F0.5
sI1412
F0.154867
sI1413
F0.666667
sI1441
F0.130081
sI1442
F0.106719
sI1443
F0.0786687
sI1444
F0.121764
sI1449
F0.106719
sI1451
F0.0865248
sI1453
F0.12442
sI1454
F0.122085
sI1455
F0.416667
sI1457
F0.98
sI1459
F0.861421
sI1460
F0.448302
sI1464
F0.237968
sI1467
F0.0851852
sI1470
F0.42
sI1471
F0.448798
sI1472
F0.903646
sI1473
F0.12
sI1475
F0.582543
sI1481
F0.837717
sI1482
F0.952941
sI1483
F0.669538
sI1486
F0.285623
sI1487
F0.0631413
sI1488
F0.246154
sI1489
F0.293486
sI1496
F0.495135
sI1498
F0.34632
s.